; Function Attrs: mustprogress nounwind uwtable
define dso_local void @_ZNK4llvm3pdb13PDBSymbolData14getLineNumbersEv(ptr dead_on_unwind noalias writable sret(%"class.std::unique_ptr.2") align 8 %0, ptr noundef nonnull readonly align 8 captures(none) dereferenceable(32) %1) local_unnamed_addr #0 align 2 {
  %3 = getelementptr inbounds nuw i8, ptr %1, i64 24
  %4 = load ptr, ptr %3, align 8
  %5 = load ptr, ptr %4, align 8
  %6 = getelementptr inbounds nuw i8, ptr %5, i64 752
  %7 = load ptr, ptr %6, align 8
  %8 = tail call noundef i64 %7(ptr noundef nonnull align 8 dereferenceable(8) %4) #5
  %9 = tail call i64 @llvm.umax.i64(i64 %8, i64 1)
  %10 = load ptr, ptr %3, align 8
  %11 = load ptr, ptr %10, align 8
  %12 = getelementptr inbounds nuw i8, ptr %11, i64 448
  %13 = load ptr, ptr %12, align 8
  %14 = tail call noundef i32 %13(ptr noundef nonnull align 8 dereferenceable(8) %10) #5
  %.not = icmp eq i32 %14, 0
  br i1 %.not, label %22, label %15

15:                                               ; preds = %2
  %16 = getelementptr inbounds nuw i8, ptr %1, i64 8
  %17 = load ptr, ptr %16, align 8
  %18 = trunc i64 %9 to i32
  %19 = load ptr, ptr %17, align 8
  %20 = getelementptr inbounds nuw i8, ptr %19, i64 104
  %21 = load ptr, ptr %20, align 8
  tail call void %21(ptr dead_on_unwind writable sret(%"class.std::unique_ptr.2") align 8 %0, ptr noundef nonnull align 8 dereferenceable(8) %17, i32 noundef %14, i32 noundef %18) #5
  br label %41

22:                                               ; preds = %2
  %23 = load ptr, ptr %3, align 8
  %24 = load ptr, ptr %23, align 8
  %25 = getelementptr inbounds nuw i8, ptr %24, i64 152
  %26 = load ptr, ptr %25, align 8
  %27 = tail call noundef i32 %26(ptr noundef nonnull align 8 dereferenceable(8) %23) #5
  %.not9 = icmp eq i32 %27, 0
  br i1 %.not9, label %40, label %28

28:                                               ; preds = %22
  %29 = getelementptr inbounds nuw i8, ptr %1, i64 8
  %30 = load ptr, ptr %29, align 8
  %31 = load ptr, ptr %3, align 8
  %32 = load ptr, ptr %31, align 8
  %33 = getelementptr inbounds nuw i8, ptr %32, i64 144
  %34 = load ptr, ptr %33, align 8
  %35 = tail call noundef i32 %34(ptr noundef nonnull align 8 dereferenceable(8) %31) #5
  %36 = trunc i64 %9 to i32
  %37 = load ptr, ptr %30, align 8
  %38 = getelementptr inbounds nuw i8, ptr %37, i64 112
  %39 = load ptr, ptr %38, align 8
  tail call void %39(ptr dead_on_unwind writable sret(%"class.std::unique_ptr.2") align 8 %0, ptr noundef nonnull align 8 dereferenceable(8) %30, i32 noundef %27, i32 noundef %35, i32 noundef %36) #5
  br label %41

40:                                               ; preds = %22
  store ptr null, ptr %0, align 8
  br label %41

41:                                               ; preds = %40, %28, %15
  ret void
}